Certificate:
    Data:
        Version: 3 (0x2)
        Serial Number: 268435668 (0x100000d4)
        Signature Algorithm: sha256WithRSAEncryption
        Issuer: C=DE, ST=Hessen, O=privacyidea, CN=CA001
        Validity
            Not Before: Dec 14 13:04:28 2020 GMT
            Not After : Dec 14 13:04:28 2021 GMT
        Subject: CN=selfservice,CN=user,O=realm1/emailAddress=meine
        Subject Public Key Info:
            Public Key Algorithm: rsaEncryption
                RSA Public-Key: (2048 bit)
                Modulus:
                    00:cf:3c:d4:33:0e:12:c4:e6:da:cd:b6:56:a1:1c:
                    26:bb:26:1c:8a:4a:73:a8:58:8a:b6:1e:b3:8b:99:
                    d2:1d:07:c2:92:89:79:c0:69:d8:c8:df:28:61:98:
                    1e:b3:fe:ae:2b:bd:78:a9:f7:6e:47:dc:a3:a0:16:
                    8c:85:02:c1:4e:92:fd:72:6e:f0:c8:03:29:9b:b8:
                    00:6e:c0:83:95:c8:34:20:36:9c:b3:e5:e4:e6:76:
                    73:a3:1a:ad:40:96:e0:53:54:00:ec:76:79:9a:c6:
                    0d:7e:b6:bd:29:ec:83:f3:cb:89:a4:cb:6c:00:ba:
                    0c:c5:78:0f:ff:69:b8:94:f4:04:70:43:3f:d8:9e:
                    d7:a7:fb:5d:ce:75:8e:da:e7:c4:07:b1:9d:de:6f:
                    88:4b:b6:4d:9a:cf:f9:bc:fa:9f:cd:32:6d:f6:3a:
                    0b:0d:23:42:78:ec:97:42:bf:0e:4d:60:56:e1:d3:
                    02:f2:19:cb:84:57:90:e5:70:a1:a2:83:35:86:e2:
                    da:86:9f:f9:8a:c4:79:b3:52:28:da:cb:bb:34:ca:
                    d3:da:91:4a:cf:8d:76:a2:b2:6b:9b:f9:96:fd:09:
                    2a:da:11:23:4d:f0:cb:d6:b2:b1:0e:12:6c:9a:19:
                    65:98:87:ca:e4:ee:24:ce:44:ac:90:8f:9d:1b:c5:
                    2a:9d
                Exponent: 65537 (0x10001)
        X509v3 extensions:
            X509v3 Key Usage: 
                Digital Signature, Key Encipherment
            X509v3 Basic Constraints: 
                CA:FALSE
            Netscape Cert Type: 
                SSL Server
            Netscape Comment: 
                OpenSSL Generated Server Certificate
            X509v3 Subject Key Identifier: 
                4D:07:90:AD:FF:1D:0D:E7:1A:DD:D6:2E:FA:BA:34:CB:AA:1F:24:C6
            X509v3 Authority Key Identifier: 
                keyid:F4:A7:C0:CC:91:46:AF:64:F3:91:F2:27:F8:C8:B2:6F:8A:87:32:73
                DirName:/C=DE/ST=Hessen/O=privacyidea/CN=CA001
                serial:FB:C8:EB:AC:83:CD:12:07

            X509v3 Extended Key Usage: 
                TLS Web Server Authentication
    Signature Algorithm: sha256WithRSAEncryption
         88:f4:27:59:76:8c:f6:57:33:72:98:e6:c0:b8:36:db:1b:6a:
         cd:61:dd:c3:0a:b0:5f:ac:11:81:08:54:51:68:87:fe:a0:a1:
         77:ba:ca:57:85:91:b2:8f:70:7f:ef:e5:e4:1b:49:2a:41:12:
         71:3a:db:af:a4:17:f7:f5:f9:3d:07:12:ce:13:34:aa:18:5b:
         52:e3:aa:d2:42:85:28:47:e6:a9:06:f9:67:98:6a:14:12:d9:
         34:06:00:72:2b:c7:2b:b6:fc:55:8d:68:98:db:d4:eb:03:56:
         22:23:72:8a:69:6e:00:80:e1:a6:b1:78:16:3d:6e:1d:50:b6:
         b6:65:7f:dd:11:e0:ea:e7:d1:04:b5:f0:75:b9:75:16:86:96:
         cc:b4:8e:ef:be:ce:c0:b7:7d:69:96:b1:f5:87:38:28:00:6e:
         c5:e2:49:a0:56:75:6a:34:cb:28:57:9c:d4:93:6c:12:16:bb:
         f3:98:f8:84:2f:90:4d:09:78:28:db:60:18:a0:20:42:12:4d:
         86:2d:90:b1:77:d8:f7:ea:b3:39:ae:fe:13:6d:10:18:f0:a6:
         f0:f3:9a:e2:7f:a6:65:b8:c0:4b:bf:fe:c9:f0:78:42:6d:fd:
         a1:44:d0:03:f9:fa:86:8f:0f:a3:91:79:c3:06:29:cf:72:f6:
         6a:12:6a:81
-----BEGIN CERTIFICATE-----
MIIEDzCCAvegAwIBAgIEEAAA1DANBgkqhkiG9w0BAQsFADBEMQswCQYDVQQGEwJE
RTEPMA0GA1UECAwGSGVzc2VuMRQwEgYDVQQKDAtwcml2YWN5aWRlYTEOMAwGA1UE
AwwFQ0EwMDEwHhcNMjAxMjE0MTMwNDI4WhcNMjExMjE0MTMwNDI4WjA9MSUwIwYD
VQQDDBxzZWxmc2VydmljZSxDTj11c2VyLE89cmVhbG0xMRQwEgYJKoZIhvcNAQkB
FgVtZWluZTCCASIwDQYJKoZIhvcNAQEBBQADggEPADCCAQoCggEBAM881DMOEsTm
2s22VqEcJrsmHIpKc6hYirYes4uZ0h0HwpKJecBp2MjfKGGYHrP+riu9eKn3bkfc
o6AWjIUCwU6S/XJu8MgDKZu4AG7Ag5XINCA2nLPl5OZ2c6MarUCW4FNUAOx2eZrG
DX62vSnsg/PLiaTLbAC6DMV4D/9puJT0BHBDP9ie16f7Xc51jtrnxAexnd5viEu2
TZrP+bz6n80ybfY6Cw0jQnjsl0K/Dk1gVuHTAvIZy4RXkOVwoaKDNYbi2oaf+YrE
ebNSKNrLuzTK09qRSs+NdqKya5v5lv0JKtoRI03wy9aysQ4SbJoZZZiHyuTuJM5E
rJCPnRvFKp0CAwEAAaOCAQ4wggEKMAsGA1UdDwQEAwIFoDAJBgNVHRMEAjAAMBEG
CWCGSAGG+EIBAQQEAwIGQDAzBglghkgBhvhCAQ0EJhYkT3BlblNTTCBHZW5lcmF0
ZWQgU2VydmVyIENlcnRpZmljYXRlMB0GA1UdDgQWBBRNB5Ct/x0N5xrd1i76ujTL
qh8kxjB0BgNVHSMEbTBrgBT0p8DMkUavZPOR8if4yLJviocyc6FIpEYwRDELMAkG
A1UEBhMCREUxDzANBgNVBAgMBkhlc3NlbjEUMBIGA1UECgwLcHJpdmFjeWlkZWEx
DjAMBgNVBAMMBUNBMDAxggkA+8jrrIPNEgcwEwYDVR0lBAwwCgYIKwYBBQUHAwEw
DQYJKoZIhvcNAQELBQADggEBAIj0J1l2jPZXM3KY5sC4Ntsbas1h3cMKsF+sEYEI
VFFoh/6goXe6yleFkbKPcH/v5eQbSSpBEnE626+kF/f1+T0HEs4TNKoYW1LjqtJC
hShH5qkG+WeYahQS2TQGAHIrxyu2/FWNaJjb1OsDViIjcoppbgCA4aaxeBY9bh1Q
trZlf90R4Orn0QS18HW5dRaGlsy0ju++zsC3fWmWsfWHOCgAbsXiSaBWdWo0yyhX
nNSTbBIWu/OY+IQvkE0JeCjbYBigIEISTYYtkLF32Pfqszmu/hNtEBjwpvDzmuJ/
pmW4wEu//snweEJt/aFE0AP5+oaPD6ORecMGKc9y9moSaoE=
-----END CERTIFICATE-----
