Certificate:
    Data:
        Version: 3 (0x2)
        Serial Number: 268435666 (0x100000d2)
        Signature Algorithm: sha256WithRSAEncryption
        Issuer: C=DE, ST=Hessen, O=privacyidea, CN=CA001
        Validity
            Not Before: Dec 14 13:02:29 2020 GMT
            Not After : Dec 14 13:02:29 2021 GMT
        Subject: C=DE, ST=Hessen, O=privacyidea, CN=requester.localdomain
        Subject Public Key Info:
            Public Key Algorithm: rsaEncryption
                RSA Public-Key: (2048 bit)
                Modulus:
                    00:cd:be:14:4f:fa:ce:01:3f:42:22:1b:1d:9c:af:
                    dd:92:d2:7f:db:6c:b7:3e:39:43:43:6b:13:03:f1:
                    05:f4:07:74:bc:76:69:28:0b:af:19:8e:d7:fc:e3:
                    cd:c6:58:f2:ca:7f:08:6d:53:fc:07:02:44:24:c6:
                    b4:34:4c:8c:04:fe:33:0e:40:e2:20:ba:02:73:5a:
                    f7:f5:4f:63:6e:cc:c6:b6:df:54:1d:37:39:7d:51:
                    36:26:5f:bd:dc:3f:a8:8b:6b:a2:ae:b6:9d:d6:21:
                    e7:df:41:b8:7a:28:2a:68:48:ca:a8:2d:ed:e1:e9:
                    46:5e:5a:72:6d:b4:84:38:87:91:fd:94:11:0b:28:
                    84:c6:c2:2f:2a:fb:01:f9:36:7a:09:75:d1:33:88:
                    3c:73:41:5b:c8:bf:94:89:70:a1:f0:c0:b9:2e:50:
                    53:1e:b1:17:64:69:f4:2d:81:e0:a9:0d:0e:32:e9:
                    ba:55:8a:85:f1:1b:6f:49:79:b4:7f:88:c3:0d:3e:
                    54:88:9b:3d:1f:38:8c:04:f3:ee:6a:63:2b:f5:c6:
                    db:b4:83:aa:c4:78:41:3a:7d:4b:e1:c8:3e:71:ca:
                    1b:61:59:ea:c6:c4:ca:32:5e:c9:e9:bf:12:29:e6:
                    c6:c3:63:fe:a0:55:da:7a:f1:60:98:4d:26:ed:fa:
                    70:2d
                Exponent: 65537 (0x10001)
        X509v3 extensions:
            X509v3 Key Usage: 
                Digital Signature, Key Encipherment
            X509v3 Basic Constraints: 
                CA:FALSE
            Netscape Cert Type: 
                SSL Server
            Netscape Comment: 
                OpenSSL Generated Server Certificate
            X509v3 Subject Key Identifier: 
                53:3F:ED:5D:09:07:B3:65:7B:AB:45:C9:24:5B:09:77:80:0A:96:ED
            X509v3 Authority Key Identifier: 
                keyid:F4:A7:C0:CC:91:46:AF:64:F3:91:F2:27:F8:C8:B2:6F:8A:87:32:73
                DirName:/C=DE/ST=Hessen/O=privacyidea/CN=CA001
                serial:FB:C8:EB:AC:83:CD:12:07

            X509v3 Extended Key Usage: 
                TLS Web Server Authentication
    Signature Algorithm: sha256WithRSAEncryption
         b9:ef:83:78:92:b9:08:fa:6a:d1:bd:0b:68:4c:d2:6d:b5:a3:
         e4:7f:86:c5:76:4e:dd:3e:5a:f0:9e:98:a9:cd:c0:5c:14:c0:
         27:fa:f6:3a:41:10:28:d5:78:7e:5c:86:42:c8:fd:ed:f4:56:
         a6:15:1d:0a:c9:11:65:93:7f:67:51:19:28:02:6c:d1:2e:68:
         2e:57:3f:05:0d:d6:fb:cc:0c:51:f3:f1:53:bf:89:1a:75:6a:
         f3:ff:f5:70:53:19:f0:fd:ce:3d:36:56:4e:b1:c8:74:5d:95:
         12:f8:05:e8:f8:2e:cf:80:92:8c:97:50:da:3b:19:5d:4c:9b:
         5a:10:ca:60:e5:b9:7b:90:e0:59:31:7e:4b:73:1f:ec:b2:dd:
         57:82:20:2d:e8:11:8e:4a:8f:61:d1:b6:90:84:45:5c:87:de:
         25:72:ce:a3:d5:ce:7e:c7:98:ff:cf:50:b0:31:97:7e:ba:83:
         86:97:00:94:b4:ba:c4:a9:2b:9f:0a:38:d9:a4:68:02:4f:dc:
         19:10:bc:0e:17:d7:b2:9a:f2:0e:c8:fc:d3:a4:0a:4f:6f:d2:
         ee:15:82:68:ea:81:cc:03:ba:74:47:c2:c5:a4:d1:58:ea:31:
         0c:ed:59:57:7e:a0:ab:66:65:be:e8:56:bb:26:b8:2e:7f:6c:
         f6:1e:52:11
-----BEGIN CERTIFICATE-----
MIIEJjCCAw6gAwIBAgIEEAAA0jANBgkqhkiG9w0BAQsFADBEMQswCQYDVQQGEwJE
RTEPMA0GA1UECAwGSGVzc2VuMRQwEgYDVQQKDAtwcml2YWN5aWRlYTEOMAwGA1UE
AwwFQ0EwMDEwHhcNMjAxMjE0MTMwMjI5WhcNMjExMjE0MTMwMjI5WjBUMQswCQYD
VQQGEwJERTEPMA0GA1UECAwGSGVzc2VuMRQwEgYDVQQKDAtwcml2YWN5aWRlYTEe
MBwGA1UEAwwVcmVxdWVzdGVyLmxvY2FsZG9tYWluMIIBIjANBgkqhkiG9w0BAQEF
AAOCAQ8AMIIBCgKCAQEAzb4UT/rOAT9CIhsdnK/dktJ/22y3PjlDQ2sTA/EF9Ad0
vHZpKAuvGY7X/OPNxljyyn8IbVP8BwJEJMa0NEyMBP4zDkDiILoCc1r39U9jbszG
tt9UHTc5fVE2Jl+93D+oi2uirrad1iHn30G4eigqaEjKqC3t4elGXlpybbSEOIeR
/ZQRCyiExsIvKvsB+TZ6CXXRM4g8c0FbyL+UiXCh8MC5LlBTHrEXZGn0LYHgqQ0O
Mum6VYqF8RtvSXm0f4jDDT5UiJs9HziMBPPuamMr9cbbtIOqxHhBOn1L4cg+ccob
YVnqxsTKMl7J6b8SKebGw2P+oFXaevFgmE0m7fpwLQIDAQABo4IBDjCCAQowCwYD
VR0PBAQDAgWgMAkGA1UdEwQCMAAwEQYJYIZIAYb4QgEBBAQDAgZAMDMGCWCGSAGG
+EIBDQQmFiRPcGVuU1NMIEdlbmVyYXRlZCBTZXJ2ZXIgQ2VydGlmaWNhdGUwHQYD
VR0OBBYEFFM/7V0JB7Nle6tFySRbCXeACpbtMHQGA1UdIwRtMGuAFPSnwMyRRq9k
85HyJ/jIsm+KhzJzoUikRjBEMQswCQYDVQQGEwJERTEPMA0GA1UECAwGSGVzc2Vu
MRQwEgYDVQQKDAtwcml2YWN5aWRlYTEOMAwGA1UEAwwFQ0EwMDGCCQD7yOusg80S
BzATBgNVHSUEDDAKBggrBgEFBQcDATANBgkqhkiG9w0BAQsFAAOCAQEAue+DeJK5
CPpq0b0LaEzSbbWj5H+GxXZO3T5a8J6Yqc3AXBTAJ/r2OkEQKNV4flyGQsj97fRW
phUdCskRZZN/Z1EZKAJs0S5oLlc/BQ3W+8wMUfPxU7+JGnVq8//1cFMZ8P3OPTZW
TrHIdF2VEvgF6Pguz4CSjJdQ2jsZXUybWhDKYOW5e5DgWTF+S3Mf7LLdV4IgLegR
jkqPYdG2kIRFXIfeJXLOo9XOfseY/89QsDGXfrqDhpcAlLS6xKkrnwo42aRoAk/c
GRC8DhfXspryDsj806QKT2/S7hWCaOqBzAO6dEfCxaTRWOoxDO1ZV36gq2ZlvuhW
uya4Ln9s9h5SEQ==
-----END CERTIFICATE-----
