Certificate:
    Data:
        Version: 3 (0x2)
        Serial Number: 268435667 (0x100000d3)
        Signature Algorithm: sha256WithRSAEncryption
        Issuer: C=DE, ST=Hessen, O=privacyidea, CN=CA001
        Validity
            Not Before: Dec 14 13:02:30 2020 GMT
            Not After : Dec 14 13:02:30 2021 GMT
        Subject: OU=realm1, CN=cornelius/emailAddress=user@localhost.localdomain
        Subject Public Key Info:
            Public Key Algorithm: rsaEncryption
                RSA Public-Key: (2048 bit)
                Modulus:
                    00:a2:cb:15:cf:19:97:e5:de:86:d6:b9:fd:af:51:
                    d7:86:94:8c:6d:65:cf:70:79:ac:d1:0a:ff:bc:12:
                    44:5c:3b:1a:7c:85:4b:b7:98:fa:29:20:51:95:e4:
                    29:85:5c:0e:9d:23:c6:76:c5:83:00:d4:08:33:f6:
                    e5:62:34:f7:2a:79:cf:e7:7e:db:3c:5b:d1:cf:ca:
                    af:64:00:c3:66:1e:25:ba:12:28:9e:a9:8a:09:80:
                    dc:90:6c:b9:c1:73:e4:02:49:c7:3f:af:d4:9a:89:
                    b8:68:82:3a:a9:37:8f:00:c0:f9:b8:55:9d:fe:93:
                    d0:4f:7c:67:3f:3c:39:a9:06:e5:48:7d:c4:7a:ed:
                    bc:5c:16:94:d3:4f:1d:4b:69:ce:c4:6f:e4:d7:87:
                    dd:65:5e:5c:b2:5e:fe:49:f4:44:40:b6:41:79:02:
                    fc:7a:89:5d:7e:60:a8:31:fb:20:72:81:43:d9:64:
                    51:58:8f:9d:66:c5:f2:c2:df:24:3c:c2:65:6f:e5:
                    53:77:91:3f:4b:8c:c0:5c:c4:a4:b9:e8:c4:88:35:
                    53:98:80:16:58:6b:0a:f0:07:12:17:6b:45:f0:6f:
                    b5:d3:2d:80:b0:a1:68:ea:77:4d:0f:fe:8a:61:49:
                    10:2f:25:7b:0c:d3:f7:5f:75:f0:ab:89:e1:16:c7:
                    3e:ad
                Exponent: 65537 (0x10001)
        X509v3 extensions:
            X509v3 Key Usage: 
                Digital Signature, Key Encipherment
            X509v3 Basic Constraints: 
                CA:FALSE
            Netscape Cert Type: 
                SSL Server
            Netscape Comment: 
                OpenSSL Generated Server Certificate
            X509v3 Subject Key Identifier: 
                25:C6:80:07:EE:42:7A:49:8B:E0:FD:D1:74:6E:12:BD:36:20:0C:22
            X509v3 Authority Key Identifier: 
                keyid:F4:A7:C0:CC:91:46:AF:64:F3:91:F2:27:F8:C8:B2:6F:8A:87:32:73
                DirName:/C=DE/ST=Hessen/O=privacyidea/CN=CA001
                serial:FB:C8:EB:AC:83:CD:12:07

            X509v3 Extended Key Usage: 
                TLS Web Server Authentication
    Signature Algorithm: sha256WithRSAEncryption
         24:fa:d5:0a:85:bb:3d:24:05:10:ff:3a:67:50:5c:bf:66:95:
         91:0d:7d:9f:ce:53:19:c3:a8:b4:5f:63:2a:5a:15:94:53:a6:
         73:8b:29:5e:17:e8:75:67:06:a8:fd:7d:00:0f:6e:37:9c:3a:
         73:ee:b6:c1:d2:be:a0:49:b7:e6:79:2f:85:a0:11:35:8d:f4:
         e7:e5:b5:e8:c8:c7:95:d3:ad:ba:d5:b5:10:4b:ff:08:b7:34:
         3e:55:d8:e4:9f:6a:69:bc:c6:37:b3:9e:24:b7:15:5f:09:ec:
         68:88:3f:0e:b6:e3:e8:10:80:fb:e5:86:03:ef:f3:fb:a8:7b:
         ea:63:e1:21:b6:8d:99:84:08:5f:71:0e:79:71:b5:d1:1b:7d:
         c4:d5:9b:eb:57:91:8c:cd:5a:cd:36:95:be:73:7f:70:ae:08:
         90:15:0d:e9:43:67:f1:a7:fa:f8:24:a1:e7:30:18:0d:78:92:
         71:76:df:0e:c2:20:39:db:4b:14:a4:7c:5f:1c:e5:77:ef:19:
         42:af:55:2d:8d:f0:3d:d1:37:33:4e:9f:f8:c3:63:8a:55:57:
         9d:a5:4c:35:0f:a8:80:cc:38:3d:ee:58:0a:a9:30:0f:00:6c:
         30:4c:2f:1b:2c:0a:57:ab:10:74:e1:ee:e3:dd:25:98:1e:4c:
         01:eb:85:72
-----BEGIN CERTIFICATE-----
MIIEIjCCAwqgAwIBAgIEEAAA0zANBgkqhkiG9w0BAQsFADBEMQswCQYDVQQGEwJE
RTEPMA0GA1UECAwGSGVzc2VuMRQwEgYDVQQKDAtwcml2YWN5aWRlYTEOMAwGA1UE
AwwFQ0EwMDEwHhcNMjAxMjE0MTMwMjMwWhcNMjExMjE0MTMwMjMwWjBQMQ8wDQYD
VQQLDAZyZWFsbTExEjAQBgNVBAMMCWNvcm5lbGl1czEpMCcGCSqGSIb3DQEJARYa
dXNlckBsb2NhbGhvc3QubG9jYWxkb21haW4wggEiMA0GCSqGSIb3DQEBAQUAA4IB
DwAwggEKAoIBAQCiyxXPGZfl3obWuf2vUdeGlIxtZc9weazRCv+8EkRcOxp8hUu3
mPopIFGV5CmFXA6dI8Z2xYMA1Agz9uViNPcqec/nfts8W9HPyq9kAMNmHiW6Eiie
qYoJgNyQbLnBc+QCScc/r9SaibhogjqpN48AwPm4VZ3+k9BPfGc/PDmpBuVIfcR6
7bxcFpTTTx1Lac7Eb+TXh91lXlyyXv5J9ERAtkF5Avx6iV1+YKgx+yBygUPZZFFY
j51mxfLC3yQ8wmVv5VN3kT9LjMBcxKS56MSINVOYgBZYawrwBxIXa0Xwb7XTLYCw
oWjqd00P/ophSRAvJXsM0/dfdfCrieEWxz6tAgMBAAGjggEOMIIBCjALBgNVHQ8E
BAMCBaAwCQYDVR0TBAIwADARBglghkgBhvhCAQEEBAMCBkAwMwYJYIZIAYb4QgEN
BCYWJE9wZW5TU0wgR2VuZXJhdGVkIFNlcnZlciBDZXJ0aWZpY2F0ZTAdBgNVHQ4E
FgQUJcaAB+5CekmL4P3RdG4SvTYgDCIwdAYDVR0jBG0wa4AU9KfAzJFGr2TzkfIn
+Miyb4qHMnOhSKRGMEQxCzAJBgNVBAYTAkRFMQ8wDQYDVQQIDAZIZXNzZW4xFDAS
BgNVBAoMC3ByaXZhY3lpZGVhMQ4wDAYDVQQDDAVDQTAwMYIJAPvI66yDzRIHMBMG
A1UdJQQMMAoGCCsGAQUFBwMBMA0GCSqGSIb3DQEBCwUAA4IBAQAk+tUKhbs9JAUQ
/zpnUFy/ZpWRDX2fzlMZw6i0X2MqWhWUU6ZziyleF+h1Zwao/X0AD243nDpz7rbB
0r6gSbfmeS+FoBE1jfTn5bXoyMeV06261bUQS/8ItzQ+Vdjkn2ppvMY3s54ktxVf
CexoiD8OtuPoEID75YYD7/P7qHvqY+Ehto2ZhAhfcQ55cbXRG33E1ZvrV5GMzVrN
NpW+c39wrgiQFQ3pQ2fxp/r4JKHnMBgNeJJxdt8OwiA520sUpHxfHOV37xlCr1Ut
jfA90TczTp/4w2OKVVedpUw1D6iAzDg97lgKqTAPAGwwTC8bLApXqxB04e7j3SWY
HkwB64Vy
-----END CERTIFICATE-----
