Certificate:
    Data:
        Version: 3 (0x2)
        Serial Number: 268435697 (0x100000f1)
        Signature Algorithm: sha256WithRSAEncryption
        Issuer: C=DE, ST=Hessen, O=privacyidea, CN=CA001
        Validity
            Not Before: Dec  8 16:45:15 2020 GMT
            Not After : Dec  8 16:45:15 2021 GMT
        Subject: CN=cn=cornelius
        Subject Public Key Info:
            Public Key Algorithm: rsaEncryption
                RSA Public-Key: (2048 bit)
                Modulus:
                    00:ce:a4:39:30:25:73:e4:9d:e6:37:3b:85:59:83:
                    ef:a3:6e:f9:83:b9:f7:48:b0:0b:d5:e8:05:40:61:
                    cd:c5:5a:bc:11:2f:5b:4e:d0:4f:b8:d0:e8:7f:05:
                    ab:ad:24:0b:90:d4:3f:60:ec:15:b6:4e:be:8e:d9:
                    26:ab:f2:2f:7f:35:c2:a6:a1:bc:52:3a:d9:88:fb:
                    b3:fa:71:20:b9:51:0e:f8:af:0d:16:be:bd:5d:b9:
                    ab:30:d5:ac:6b:3c:bc:ee:28:4a:4f:6f:d4:09:15:
                    f7:98:af:77:db:36:15:2e:1e:ee:0f:d0:d9:60:ad:
                    db:b9:c4:3f:c6:25:32:f9:e3:e9:50:b8:ec:84:a0:
                    c4:d2:9c:fd:ce:25:80:85:7e:3a:ad:4c:a7:40:1b:
                    0a:58:18:9f:c2:5e:36:e1:d1:44:e9:46:b6:dc:b4:
                    28:a2:ec:ed:02:f7:25:79:e1:86:8e:69:67:52:ee:
                    82:21:b7:84:2d:cc:e7:a8:39:57:7d:a3:1e:e9:50:
                    63:77:29:ab:e4:a5:ff:dc:ee:4c:4b:5e:08:2b:62:
                    08:2d:75:b8:26:6c:93:eb:f5:45:ea:cd:83:58:53:
                    15:46:e6:6b:43:c1:2f:d9:88:4b:3d:d5:fd:0c:ff:
                    51:52:ed:54:fb:27:2d:59:ef:4c:50:ce:71:cd:eb:
                    5a:99
                Exponent: 65537 (0x10001)
        X509v3 extensions:
            X509v3 Key Usage: 
                Digital Signature, Key Encipherment
            X509v3 Basic Constraints: 
                CA:FALSE
            Netscape Cert Type: 
                SSL Server
            Netscape Comment: 
                OpenSSL Generated Server Certificate
            X509v3 Subject Key Identifier: 
                0E:D5:BA:4E:7D:92:57:15:FD:61:4E:34:5B:E9:62:D0:20:1C:7D:08
            X509v3 Authority Key Identifier: 
                keyid:F4:A7:C0:CC:91:46:AF:64:F3:91:F2:27:F8:C8:B2:6F:8A:87:32:73
                DirName:/C=DE/ST=Hessen/O=privacyidea/CN=CA001
                serial:FB:C8:EB:AC:83:CD:12:07

            X509v3 Extended Key Usage: 
                TLS Web Server Authentication
    Signature Algorithm: sha256WithRSAEncryption
         09:3f:fc:32:8b:97:56:5b:89:ba:0f:c9:2a:bc:2f:9d:a7:b4:
         c7:c7:c9:29:c4:7e:c0:76:54:1f:8d:39:02:2b:f9:29:69:68:
         bd:93:1a:be:8b:0c:4b:28:2c:37:f3:21:30:09:9d:ce:2b:5f:
         8e:06:a3:99:34:df:d7:fb:85:56:e0:42:ef:06:76:3d:26:fe:
         74:30:66:85:6e:92:fe:a1:e4:25:0c:94:6e:2d:7f:52:c8:4c:
         6d:ea:07:e5:df:a4:3c:38:65:6d:bd:c7:e8:5c:93:ec:67:10:
         bf:0d:99:57:89:15:55:f5:32:a7:ea:b3:c5:11:52:e7:35:8d:
         65:a2:e4:97:b4:a3:18:f4:e7:e0:5b:f8:92:82:d5:a4:a4:f1:
         5e:d9:9d:75:52:36:45:16:07:7c:09:7e:67:3f:b8:30:97:db:
         30:cc:2a:fd:26:c8:81:40:16:2f:18:62:b6:c0:6b:7c:9b:41:
         46:f7:ee:47:f4:bf:8b:61:d9:7a:27:44:ed:d5:5b:fd:4d:dc:
         9e:ae:9f:91:57:97:00:a3:ed:55:4d:be:e3:7f:98:e9:2d:0c:
         61:b9:fe:2c:15:3c:10:f9:1a:b5:f9:2f:74:57:63:d1:7e:0c:
         4b:91:f8:eb:39:44:0a:f6:2a:00:84:0c:de:b4:eb:89:85:b5:
         b4:1e:a2:81
-----BEGIN CERTIFICATE-----
MIID6TCCAtGgAwIBAgIEEAAA8TANBgkqhkiG9w0BAQsFADBEMQswCQYDVQQGEwJE
RTEPMA0GA1UECAwGSGVzc2VuMRQwEgYDVQQKDAtwcml2YWN5aWRlYTEOMAwGA1UE
AwwFQ0EwMDEwHhcNMjAxMjA4MTY0NTE1WhcNMjExMjA4MTY0NTE1WjAXMRUwEwYD
VQQDDAxjbj1jb3JuZWxpdXMwggEiMA0GCSqGSIb3DQEBAQUAA4IBDwAwggEKAoIB
AQDOpDkwJXPkneY3O4VZg++jbvmDufdIsAvV6AVAYc3FWrwRL1tO0E+40Oh/Baut
JAuQ1D9g7BW2Tr6O2Sar8i9/NcKmobxSOtmI+7P6cSC5UQ74rw0Wvr1duasw1axr
PLzuKEpPb9QJFfeYr3fbNhUuHu4P0Nlgrdu5xD/GJTL54+lQuOyEoMTSnP3OJYCF
fjqtTKdAGwpYGJ/CXjbh0UTpRrbctCii7O0C9yV54YaOaWdS7oIht4QtzOeoOVd9
ox7pUGN3Kavkpf/c7kxLXggrYggtdbgmbJPr9UXqzYNYUxVG5mtDwS/ZiEs91f0M
/1FS7VT7Jy1Z70xQznHN61qZAgMBAAGjggEOMIIBCjALBgNVHQ8EBAMCBaAwCQYD
VR0TBAIwADARBglghkgBhvhCAQEEBAMCBkAwMwYJYIZIAYb4QgENBCYWJE9wZW5T
U0wgR2VuZXJhdGVkIFNlcnZlciBDZXJ0aWZpY2F0ZTAdBgNVHQ4EFgQUDtW6Tn2S
VxX9YU40W+li0CAcfQgwdAYDVR0jBG0wa4AU9KfAzJFGr2TzkfIn+Miyb4qHMnOh
SKRGMEQxCzAJBgNVBAYTAkRFMQ8wDQYDVQQIDAZIZXNzZW4xFDASBgNVBAoMC3By
aXZhY3lpZGVhMQ4wDAYDVQQDDAVDQTAwMYIJAPvI66yDzRIHMBMGA1UdJQQMMAoG
CCsGAQUFBwMBMA0GCSqGSIb3DQEBCwUAA4IBAQAJP/wyi5dWW4m6D8kqvC+dp7TH
x8kpxH7AdlQfjTkCK/kpaWi9kxq+iwxLKCw38yEwCZ3OK1+OBqOZNN/X+4VW4ELv
BnY9Jv50MGaFbpL+oeQlDJRuLX9SyExt6gfl36Q8OGVtvcfoXJPsZxC/DZlXiRVV
9TKn6rPFEVLnNY1louSXtKMY9OfgW/iSgtWkpPFe2Z11UjZFFgd8CX5nP7gwl9sw
zCr9JsiBQBYvGGK2wGt8m0FG9+5H9L+LYdl6J0Tt1Vv9Tdyerp+RV5cAo+1VTb7j
f5jpLQxhuf4sFTwQ+Rq1+S90V2PRfgxLkfjrOUQK9ioAhAzetOuJhbW0HqKB
-----END CERTIFICATE-----
